(lp0
I0
aI10
aI30
aI60
aI100
aI150
aI210
aI280
aI360
aI450
a.(lp0
F0.0
aF0.0
aF0.0
aF0.0099999999999999985
aF0.030000000000000006
aF0.089999999999999997
aF0.20999999999999999
aF0.39000000000000001
aF0.64999999999999991
aF1.1200000000000001
a.