(lp0
I0
aI10
aI30
aI60
aI100
aI150
aI210
aI280
aI360
aI450
a.(lp0
F0.0
aF0.0
aF0.0
aF0.010000000000000002
aF0.040000000000000001
aF0.11
aF0.19
aF0.35999999999999999
aF0.67999999999999994
aF1.1800000000000002
a.